target datalayout = "e-m:e-p270:32:32-p271:32:32-p272:64:64-i64:64-i128:128-f80:128-n8:16:32:64-S128"
target triple = "x86_64-pc-linux-gnu"

%struct._zval_struct = type { %union._zend_value, %union.anon.0, %union.anon.3 }
%union._zend_value = type { i64 }
%union.anon.0 = type { i32 }
%union.anon.3 = type { i32 }
%struct._zend_refcounted_h = type { i32, %union.anon }
%union.anon = type { i32 }
%struct._xmlreader_object = type { ptr, ptr, ptr, ptr, %struct._zend_object }
%struct._zend_object = type { %struct._zend_refcounted_h, i32, ptr, ptr, ptr, [1 x %struct._zval_struct] }

; Function Attrs: nounwind uwtable
define internal ptr @php_xmlreader_fetch_object(ptr noundef %0) #0 {
  %2 = alloca ptr, align 8
  store ptr %0, ptr %2, align 8
  %3 = load ptr, ptr %2, align 8
  %4 = getelementptr inbounds i8, ptr %3, i64 -32
  ret ptr %4
}

; Function Attrs: nounwind uwtable
define hidden ptr @xmlreader_get_property_ptr_ptr(ptr noundef %0, ptr noundef %1, i32 noundef %2, ptr noundef %3) #0 {
  %5 = alloca ptr, align 8
  %6 = alloca ptr, align 8
  %7 = alloca ptr, align 8
  %8 = alloca ptr, align 8
  %9 = alloca ptr, align 8
  %10 = alloca ptr, align 8
  %11 = alloca i32, align 4
  %12 = alloca ptr, align 8
  %13 = alloca ptr, align 8
  %14 = alloca ptr, align 8
  %15 = alloca ptr, align 8
  store ptr %0, ptr %9, align 8
  store ptr %1, ptr %10, align 8
  store i32 %2, ptr %11, align 4
  store ptr %3, ptr %12, align 8
  store ptr null, ptr %14, align 8
  store ptr null, ptr %15, align 8
  %16 = load ptr, ptr %9, align 8
  %17 = call ptr @php_xmlreader_fetch_object(ptr noundef %16)
  store ptr %17, ptr %13, align 8
  %18 = load ptr, ptr %13, align 8
  %19 = getelementptr inbounds %struct._xmlreader_object, ptr %18, i32 0, i32 3
  %20 = load ptr, ptr %19, align 8
  %21 = icmp ne ptr %20, null
  br i1 %21, label %22, label %41

22:                                               ; preds = %4
  %23 = load ptr, ptr %13, align 8
  %24 = getelementptr inbounds %struct._xmlreader_object, ptr %23, i32 0, i32 3
  %25 = load ptr, ptr %24, align 8
  %26 = load ptr, ptr %10, align 8
  store ptr %25, ptr %6, align 8
  store ptr %26, ptr %7, align 8
  %27 = load ptr, ptr %6, align 8
  %28 = load ptr, ptr %7, align 8
  %29 = call ptr @zend_hash_find(ptr noundef %27, ptr noundef %28) #9
  store ptr %29, ptr %8, align 8
  %30 = load ptr, ptr %8, align 8
  %31 = icmp ne ptr %30, null
  br i1 %31, label %32, label %38

32:                                               ; preds = %22
  %33 = load ptr, ptr %8, align 8
  %34 = load ptr, ptr %33, align 8
  %35 = icmp ne ptr %34, null
  call void @llvm.assume(i1 %35)
  %36 = load ptr, ptr %8, align 8
  %37 = load ptr, ptr %36, align 8
  store ptr %37, ptr %5, align 8
  br label %39

38:                                               ; preds = %22
  store ptr null, ptr %5, align 8
  br label %39

39:                                               ; preds = %38, %32
  %40 = load ptr, ptr %5, align 8
  store ptr %40, ptr %15, align 8
  br label %41

41:                                               ; preds = %39, %4
  %42 = load ptr, ptr %15, align 8
  %43 = icmp eq ptr %42, null
  br i1 %43, label %44, label %50

44:                                               ; preds = %41
  %45 = load ptr, ptr %9, align 8
  %46 = load ptr, ptr %10, align 8
  %47 = load i32, ptr %11, align 4
  %48 = load ptr, ptr %12, align 8
  %49 = call ptr @zend_std_get_property_ptr_ptr(ptr noundef %45, ptr noundef %46, i32 noundef %47, ptr noundef %48)
  store ptr %49, ptr %14, align 8
  br label %50

50:                                               ; preds = %44, %41
  %51 = load ptr, ptr %14, align 8
  ret ptr %51
}