; Function Attrs: nounwind uwtable
define hidden ptr @xmlreader_get_property_ptr_ptr(ptr noundef %0, ptr noundef %1, i32 noundef %2, ptr noundef %3) #0 {
  %5 = getelementptr inbounds i8, ptr %0, i64 -8
  %6 = load ptr, ptr %5, align 8
  %.not = icmp eq ptr %6, null
  br i1 %.not, label %.critedge, label %7

7:                                                ; preds = %4
  %8 = tail call ptr @zend_hash_find(ptr noundef nonnull %6, ptr noundef %1) #11
  %.not19 = icmp eq ptr %8, null
  br i1 %.not19, label %.critedge, label %10

.critedge:                                        ; preds = %4, %7
  %9 = tail call ptr @zend_std_get_property_ptr_ptr(ptr noundef nonnull %0, ptr noundef %1, i32 noundef %2, ptr noundef %3) #11
  br label %10

10:                                               ; preds = %.critedge, %7
  %.015 = phi ptr [ %9, %.critedge ], [ null, %7 ]
  ret ptr %.015
}